target datalayout = "e-m:e-p270:32:32-p271:32:32-p272:64:64-i64:64-i128:128-f80:128-n8:16:32:64-S128"
target triple = "x86_64-pc-linux-gnu"

%"struct.folly::detail::safe_assert_terminate_w" = type { ptr }
%"struct.folly::detail::safe_assert_msg_cast_one_fn" = type { i8 }
%"class.folly::symbolizer::ElfFile" = type { [512 x i8], i32, ptr, i64, %"struct.folly::symbolizer::ElfFileId", i64 }
%"struct.folly::symbolizer::ElfFileId" = type { i64, i64, i64, i64 }
%struct.Elf64_Shdr = type { i32, i32, i64, i64, i64, i64, i32, i32, i64, i64 }

@_ZN5folly6detail24safe_assert_msg_cast_oneE = linkonce_odr constant %"struct.folly::detail::safe_assert_msg_cast_one_fn" undef, comdat, align 1
@.str.38 = private unnamed_addr constant [30 x i8] c"invalid type for string table\00", align 1
@.str.41 = private unnamed_addr constant [21 x i8] c"invalid string table\00", align 1

; Function Attrs: noinline noreturn nounwind uwtable
define linkonce_odr hidden void @__clang_call_terminate(ptr noundef %0) #15 comdat {
  %2 = call ptr @__cxa_begin_catch(ptr %0) #24
  call void @_ZSt9terminatev() #26
  unreachable
}

; Function Attrs: alwaysinline mustprogress nounwind uwtable
define linkonce_odr hidden noundef ptr @_ZNK5folly6detail27safe_assert_msg_cast_one_fnclEPKc(ptr noundef nonnull align 1 dereferenceable(1) %0, ptr noundef %1) #21 comdat align 2 {
  %3 = alloca ptr, align 8
  %4 = alloca ptr, align 8
  store ptr %0, ptr %3, align 8, !tbaa !126
  store ptr %1, ptr %4, align 8, !tbaa !22
  %5 = load ptr, ptr %4, align 8, !tbaa !22
  ret ptr %5
}

; Function Attrs: alwaysinline mustprogress noreturn nounwind uwtable
define linkonce_odr void @_ZNK5folly6detail23safe_assert_terminate_wILb0EEclIJPKcEEEvDpT_(ptr noundef nonnull align 8 dereferenceable(8) %0, ptr noundef %1) #19 comdat align 2 personality ptr @__gxx_personality_v0 {
  %3 = alloca ptr, align 8
  %4 = alloca ptr, align 8
  store ptr %0, ptr %3, align 8, !tbaa !104
  store ptr %1, ptr %4, align 8, !tbaa !22
  %5 = load ptr, ptr %3, align 8
  %6 = getelementptr inbounds nuw %"struct.folly::detail::safe_assert_terminate_w", ptr %5, i32 0, i32 0
  %7 = load ptr, ptr %6, align 8, !tbaa !106
  %8 = load ptr, ptr %4, align 8, !tbaa !22
  %9 = invoke noundef ptr @_ZNK5folly6detail27safe_assert_msg_cast_one_fnclEPKc(ptr noundef nonnull align 1 dereferenceable(1) @_ZN5folly6detail24safe_assert_msg_cast_oneE, ptr noundef %8)
          to label %10 unwind label %11

10:                                               ; preds = %2
  call void (ptr, ...) @_ZN5folly6detail21safe_assert_terminateILb0EEEvPKNS0_15safe_assert_argEz(ptr noundef %7, ptr noundef %9) #30
  unreachable

11:                                               ; preds = %2
  %12 = landingpad { ptr, i32 }
          catch ptr null
  %13 = extractvalue { ptr, i32 } %12, 0
  call void @__clang_call_terminate(ptr %13) #26
  unreachable
}

; Function Attrs: mustprogress nounwind uwtable
define void @_ZNK5folly10symbolizer7ElfFile19validateStringTableERK10Elf64_Shdr(ptr noundef nonnull align 8 dereferenceable(576) %0, ptr noundef nonnull align 8 dereferenceable(64) %1) #0 align 2 {
  %3 = alloca ptr, align 8
  %4 = alloca ptr, align 8
  %5 = alloca %"struct.folly::detail::safe_assert_terminate_w", align 8
  %6 = alloca ptr, align 8
  %7 = alloca %"struct.folly::detail::safe_assert_terminate_w", align 8
  store ptr %0, ptr %3, align 8, !tbaa !7
  store ptr %1, ptr %4, align 8, !tbaa !51
  %8 = load ptr, ptr %3, align 8
  br label %9

9:                                                ; preds = %2
  %10 = load ptr, ptr %4, align 8, !tbaa !51
  %11 = getelementptr inbounds nuw %struct.Elf64_Shdr, ptr %10, i32 0, i32 1
  %12 = load i32, ptr %11, align 4, !tbaa !146
  %13 = icmp eq i32 %12, 3
  br i1 %13, label %15, label %14

14:                                               ; preds = %9
  call void @llvm.lifetime.start.p0(i64 8, ptr %5) #24
  call void @llvm.memcpy.p0.p0.i64(ptr align 8 %5, ptr align 8 @__const._ZNK5folly10symbolizer7ElfFile19validateStringTableERK10Elf64_Shdr.__folly_detail_safe_assert_terminate_w, i64 8, i1 false)
  call void @_ZNK5folly6detail23safe_assert_terminate_wILb0EEclIJPKcEEEvDpT_(ptr noundef nonnull align 8 dereferenceable(8) %5, ptr noundef @.str.38) #26
  unreachable

15:                                               ; preds = %9
  br label %16

16:                                               ; preds = %15
  br label %17

17:                                               ; preds = %16
  call void @llvm.lifetime.start.p0(i64 8, ptr %6) #24
  %18 = getelementptr inbounds nuw %"class.folly::symbolizer::ElfFile", ptr %8, i32 0, i32 2
  %19 = load ptr, ptr %18, align 8, !tbaa !19
  %20 = load ptr, ptr %4, align 8, !tbaa !51
  %21 = getelementptr inbounds nuw %struct.Elf64_Shdr, ptr %20, i32 0, i32 4
  %22 = load i64, ptr %21, align 8, !tbaa !130
  %23 = getelementptr inbounds nuw i8, ptr %19, i64 %22
  store ptr %23, ptr %6, align 8, !tbaa !22
  br label %24

24:                                               ; preds = %17
  %25 = load ptr, ptr %4, align 8, !tbaa !51
  %26 = getelementptr inbounds nuw %struct.Elf64_Shdr, ptr %25, i32 0, i32 5
  %27 = load i64, ptr %26, align 8, !tbaa !132
  %28 = icmp eq i64 %27, 0
  br i1 %28, label %47, label %29

29:                                               ; preds = %24
  %30 = load ptr, ptr %6, align 8, !tbaa !22
  %31 = getelementptr inbounds i8, ptr %30, i64 0
  %32 = load i8, ptr %31, align 1, !tbaa !12
  %33 = sext i8 %32 to i32
  %34 = icmp eq i32 %33, 0
  br i1 %34, label %35, label %45

35:                                               ; preds = %29
  %36 = load ptr, ptr %6, align 8, !tbaa !22
  %37 = load ptr, ptr %4, align 8, !tbaa !51
  %38 = getelementptr inbounds nuw %struct.Elf64_Shdr, ptr %37, i32 0, i32 5
  %39 = load i64, ptr %38, align 8, !tbaa !132
  %40 = sub i64 %39, 1
  %41 = getelementptr inbounds nuw i8, ptr %36, i64 %40
  %42 = load i8, ptr %41, align 1, !tbaa !12
  %43 = sext i8 %42 to i32
  %44 = icmp eq i32 %43, 0
  br label %45

45:                                               ; preds = %35, %29
  %46 = phi i1 [ false, %29 ], [ %44, %35 ]
  br label %47

47:                                               ; preds = %45, %24
  %48 = phi i1 [ true, %24 ], [ %46, %45 ]
  br i1 %48, label %50, label %49

49:                                               ; preds = %47
  call void @llvm.lifetime.start.p0(i64 8, ptr %7) #24
  call void @llvm.memcpy.p0.p0.i64(ptr align 8 %7, ptr align 8 @__const._ZNK5folly10symbolizer7ElfFile19validateStringTableERK10Elf64_Shdr.__folly_detail_safe_assert_terminate_w.40, i64 8, i1 false)
  call void @_ZNK5folly6detail23safe_assert_terminate_wILb0EEclIJPKcEEEvDpT_(ptr noundef nonnull align 8 dereferenceable(8) %7, ptr noundef @.str.41) #26
  unreachable

50:                                               ; preds = %47
  br label %51

51:                                               ; preds = %50
  br label %52

52:                                               ; preds = %51
  call void @llvm.lifetime.end.p0(i64 8, ptr %6) #24
  ret void
}