; Function Attrs: mustprogress nounwind uwtable
define void @_ZNK5folly10symbolizer7ElfFile19validateStringTableERK10Elf64_Shdr(ptr noundef nonnull readonly align 8 captures(none) dereferenceable(576) %0, ptr noundef nonnull readonly align 8 captures(none) dereferenceable(64) %1) local_unnamed_addr #4 align 2 personality ptr @__gxx_personality_v0 {
  %3 = getelementptr inbounds nuw i8, ptr %1, i64 4
  %4 = load i32, ptr %3, align 4, !tbaa !88
  %5 = icmp eq i32 %4, 3
  br i1 %5, label %7, label %6

6:                                                ; preds = %2
  tail call void (ptr, ...) @_ZN5folly6detail21safe_assert_terminateILb0EEEvPKNS0_15safe_assert_argEz(ptr noundef nonnull @_ZZNK5folly10symbolizer7ElfFile19validateStringTableERK10Elf64_ShdrE30__folly_detail_safe_assert_arg, ptr noundef nonnull @.str.38) #30
  unreachable

7:                                                ; preds = %2
  %8 = getelementptr inbounds nuw i8, ptr %0, i64 520
  %9 = load ptr, ptr %8, align 8, !tbaa !17
  %10 = getelementptr inbounds nuw i8, ptr %1, i64 24
  %11 = load i64, ptr %10, align 8, !tbaa !75
  %12 = getelementptr inbounds nuw i8, ptr %9, i64 %11
  %13 = getelementptr inbounds nuw i8, ptr %1, i64 32
  %14 = load i64, ptr %13, align 8, !tbaa !80
  %15 = icmp eq i64 %14, 0
  br i1 %15, label %.critedge, label %16

16:                                               ; preds = %7
  %17 = load i8, ptr %12, align 1, !tbaa !7
  %18 = icmp eq i8 %17, 0
  br i1 %18, label %19, label %.critedge2

19:                                               ; preds = %16
  %20 = getelementptr i8, ptr %12, i64 %14
  %21 = getelementptr i8, ptr %20, i64 -1
  %22 = load i8, ptr %21, align 1, !tbaa !7
  %23 = icmp eq i8 %22, 0
  br i1 %23, label %.critedge, label %.critedge2

.critedge2:                                       ; preds = %16, %19
  tail call void (ptr, ...) @_ZN5folly6detail21safe_assert_terminateILb0EEEvPKNS0_15safe_assert_argEz(ptr noundef nonnull @_ZZNK5folly10symbolizer7ElfFile19validateStringTableERK10Elf64_ShdrE30__folly_detail_safe_assert_arg_0, ptr noundef nonnull @.str.41) #30
  unreachable

.critedge:                                        ; preds = %7, %19
  ret void
}